; ModuleID = '57/119.c'
source_filename = "57/119.c"
target datalayout = "e-m:e-p270:32:32-p271:32:32-p272:64:64-i64:64-f80:128-n8:16:32:64-S128"
target triple = "x86_64-pc-linux-gnu"

@.str = private unnamed_addr constant [3 x i8] c"%d\00", align 1
@.str.1 = private unnamed_addr constant [3 x i8] c"%s\00", align 1
@.str.2 = private unnamed_addr constant [4 x i8] c"%s\0A\00", align 1

; Function Attrs: noinline nounwind uwtable
define dso_local i32 @main() #0 {
  %1 = alloca i32, align 4
  %2 = alloca i32, align 4
  %3 = alloca i32, align 4
  %4 = alloca i32, align 4
  %5 = alloca [60 x [60 x i8]], align 16
  store i32 0, i32* %1, align 4
  %6 = call i32 (i8*, ...) @__isoc99_scanf(i8* getelementptr inbounds ([3 x i8], [3 x i8]* @.str, i64 0, i64 0), i32* %4)
  store i32 0, i32* %2, align 4
  br label %7

7:                                                ; preds = %61, %0
  %8 = load i32, i32* %2, align 4
  %9 = load i32, i32* %4, align 4
  %10 = icmp slt i32 %8, %9
  br i1 %10, label %11, label %64

11:                                               ; preds = %7
  %12 = load i32, i32* %2, align 4
  %13 = sext i32 %12 to i64
  %14 = getelementptr inbounds [60 x [60 x i8]], [60 x [60 x i8]]* %5, i64 0, i64 %13
  %15 = getelementptr inbounds [60 x i8], [60 x i8]* %14, i64 0, i64 0
  %16 = call i32 (i8*, ...) @__isoc99_scanf(i8* getelementptr inbounds ([3 x i8], [3 x i8]* @.str.1, i64 0, i64 0), i8* %15)
  %17 = load i32, i32* %2, align 4
  %18 = sext i32 %17 to i64
  %19 = getelementptr inbounds [60 x [60 x i8]], [60 x [60 x i8]]* %5, i64 0, i64 %18
  %20 = getelementptr inbounds [60 x i8], [60 x i8]* %19, i64 0, i64 0
  %21 = call i64 @strlen(i8* %20) #3
  %22 = trunc i64 %21 to i32
  store i32 %22, i32* %3, align 4
  %23 = load i32, i32* %2, align 4
  %24 = sext i32 %23 to i64
  %25 = getelementptr inbounds [60 x [60 x i8]], [60 x [60 x i8]]* %5, i64 0, i64 %24
  %26 = load i32, i32* %3, align 4
  %27 = sub nsw i32 %26, 1
  %28 = sext i32 %27 to i64
  %29 = getelementptr inbounds [60 x i8], [60 x i8]* %25, i64 0, i64 %28
  store i8 0, i8* %29, align 1
  %30 = load i32, i32* %2, align 4
  %31 = sext i32 %30 to i64
  %32 = getelementptr inbounds [60 x [60 x i8]], [60 x [60 x i8]]* %5, i64 0, i64 %31
  %33 = load i32, i32* %3, align 4
  %34 = sub nsw i32 %33, 2
  %35 = sext i32 %34 to i64
  %36 = getelementptr inbounds [60 x i8], [60 x i8]* %32, i64 0, i64 %35
  store i8 0, i8* %36, align 1
  %37 = load i32, i32* %2, align 4
  %38 = sext i32 %37 to i64
  %39 = getelementptr inbounds [60 x [60 x i8]], [60 x [60 x i8]]* %5, i64 0, i64 %38
  %40 = load i32, i32* %3, align 4
  %41 = sub nsw i32 %40, 3
  %42 = sext i32 %41 to i64
  %43 = getelementptr inbounds [60 x i8], [60 x i8]* %39, i64 0, i64 %42
  %44 = load i8, i8* %43, align 1
  %45 = sext i8 %44 to i32
  %46 = icmp eq i32 %45, 105
  br i1 %46, label %47, label %55

47:                                               ; preds = %11
  %48 = load i32, i32* %2, align 4
  %49 = sext i32 %48 to i64
  %50 = getelementptr inbounds [60 x [60 x i8]], [60 x [60 x i8]]* %5, i64 0, i64 %49
  %51 = load i32, i32* %3, align 4
  %52 = sub nsw i32 %51, 3
  %53 = sext i32 %52 to i64
  %54 = getelementptr inbounds [60 x i8], [60 x i8]* %50, i64 0, i64 %53
  store i8 0, i8* %54, align 1
  br label %55

55:                                               ; preds = %47, %11
  %56 = load i32, i32* %2, align 4
  %57 = sext i32 %56 to i64
  %58 = getelementptr inbounds [60 x [60 x i8]], [60 x [60 x i8]]* %5, i64 0, i64 %57
  %59 = getelementptr inbounds [60 x i8], [60 x i8]* %58, i64 0, i64 0
  %60 = call i32 (i8*, ...) @printf(i8* getelementptr inbounds ([4 x i8], [4 x i8]* @.str.2, i64 0, i64 0), i8* %59)
  br label %61

61:                                               ; preds = %55
  %62 = load i32, i32* %2, align 4
  %63 = add nsw i32 %62, 1
  store i32 %63, i32* %2, align 4
  br label %7

64:                                               ; preds = %7
  %65 = load i32, i32* %1, align 4
  ret i32 %65
}

declare dso_local i32 @__isoc99_scanf(i8*, ...) #1

; Function Attrs: nounwind readonly
declare dso_local i64 @strlen(i8*) #2

declare dso_local i32 @printf(i8*, ...) #1


!llvm.module.flags = !{!0}
!llvm.ident = !{!1}

!0 = !{i32 1, !"wchar_size", i32 4}
!1 = !{!"clang version 10.0.0-4ubuntu1 "}
